target datalayout = "e-m:e-p270:32:32-p271:32:32-p272:64:64-i64:64-i128:128-f80:128-n8:16:32:64-S128"
target triple = "x86_64-pc-linux-gnu"

%struct._asn1_ctx_t = type { i32, i32, i8, ptr, ptr, ptr, ptr, ptr, %struct.anon.0, %struct.anon.3, %struct.anon.4, ptr }
%struct.anon.0 = type { i32, i8, i8, i8, ptr, ptr, i32, i32, ptr, ptr, ptr, %union.anon }
%union.anon = type { %struct.anon.1 }
%struct.anon.1 = type { ptr }
%struct.anon.3 = type { ptr, ptr, ptr }
%struct.anon.4 = type { i32, i8, ptr, i32, i32, ptr, ptr, ptr, %union.anon.5 }
%union.anon.5 = type { %struct.anon.6 }
%struct.anon.6 = type { ptr }
%struct._exp_pdu_data_t = type { i32, ptr, i32, i32, ptr }

@.str.73 = private unnamed_addr constant [8 x i8] c"credssp\00", align 1
@exported_pdu_tap = internal global i32 -1, align 4

; Function Attrs: null_pointer_is_valid sspstrong uwtable
define internal zeroext i1 @dissect_credssp_heur(ptr noundef %0, ptr noundef %1, ptr noundef %2, ptr noundef %3) #0 {
  %5 = alloca i1, align 1
  %6 = alloca ptr, align 8
  %7 = alloca ptr, align 8
  %8 = alloca ptr, align 8
  %9 = alloca ptr, align 8
  %10 = alloca %struct._asn1_ctx_t, align 8
  %11 = alloca i32, align 4
  %12 = alloca i8, align 1
  %13 = alloca i8, align 1
  %14 = alloca i32, align 4
  %15 = alloca i32, align 4
  %16 = alloca i8, align 1
  %17 = alloca ptr, align 8
  %18 = alloca i32, align 4
  store ptr %0, ptr %6, align 8
  store ptr %1, ptr %7, align 8
  store ptr %2, ptr %8, align 8
  store ptr %3, ptr %9, align 8
  call void @llvm.lifetime.start.p0(i64 208, ptr %10) #7
  call void @llvm.lifetime.start.p0(i64 4, ptr %11) #7
  store i32 0, ptr %11, align 4
  call void @llvm.lifetime.start.p0(i64 1, ptr %12) #7
  call void @llvm.lifetime.start.p0(i64 1, ptr %13) #7
  call void @llvm.lifetime.start.p0(i64 4, ptr %14) #7
  call void @llvm.lifetime.start.p0(i64 4, ptr %15) #7
  call void @llvm.lifetime.start.p0(i64 1, ptr %16) #7
  %19 = load ptr, ptr %7, align 8
  call void @asn1_ctx_init(ptr noundef %10, i32 noundef 0, i1 noundef zeroext true, ptr noundef %19)
  %20 = load ptr, ptr %6, align 8
  %21 = call i32 @tvb_captured_length(ptr noundef %20)
  %22 = icmp ugt i32 %21, 7
  br i1 %22, label %23, label %111

23:                                               ; preds = %4
  %24 = load ptr, ptr %6, align 8
  %25 = load i32, ptr %11, align 4
  %26 = call i32 @get_ber_identifier(ptr noundef %24, i32 noundef %25, ptr noundef %12, ptr noundef %13, ptr noundef %14)
  store i32 %26, ptr %11, align 4
  %27 = load i8, ptr %12, align 1
  %28 = sext i8 %27 to i32
  %29 = icmp eq i32 %28, 0
  br i1 %29, label %30, label %110

30:                                               ; preds = %23
  %31 = load i32, ptr %14, align 4
  %32 = icmp eq i32 %31, 16
  br i1 %32, label %33, label %110

33:                                               ; preds = %30
  %34 = load i8, ptr %13, align 1, !range !6, !noundef !7
  %35 = trunc i8 %34 to i1
  %36 = zext i1 %35 to i32
  %37 = icmp eq i32 %36, 1
  br i1 %37, label %38, label %110

38:                                               ; preds = %33
  %39 = load ptr, ptr %6, align 8
  %40 = load i32, ptr %11, align 4
  %41 = call i32 @get_ber_length(ptr noundef %39, i32 noundef %40, ptr noundef null, ptr noundef null)
  store i32 %41, ptr %11, align 4
  %42 = load ptr, ptr %6, align 8
  %43 = load i32, ptr %11, align 4
  %44 = call i32 @get_ber_identifier(ptr noundef %42, i32 noundef %43, ptr noundef %12, ptr noundef %13, ptr noundef %14)
  store i32 %44, ptr %11, align 4
  %45 = load i8, ptr %12, align 1
  %46 = sext i8 %45 to i32
  %47 = icmp eq i32 %46, 2
  br i1 %47, label %48, label %109

48:                                               ; preds = %38
  %49 = load i32, ptr %14, align 4
  %50 = icmp eq i32 %49, 0
  br i1 %50, label %51, label %109

51:                                               ; preds = %48
  %52 = load ptr, ptr %6, align 8
  %53 = load i32, ptr %11, align 4
  %54 = call i32 @get_ber_length(ptr noundef %52, i32 noundef %53, ptr noundef null, ptr noundef null)
  store i32 %54, ptr %11, align 4
  %55 = load ptr, ptr %6, align 8
  %56 = load i32, ptr %11, align 4
  %57 = call i32 @get_ber_identifier(ptr noundef %55, i32 noundef %56, ptr noundef %12, ptr noundef %13, ptr noundef %14)
  store i32 %57, ptr %11, align 4
  %58 = load i8, ptr %12, align 1
  %59 = sext i8 %58 to i32
  %60 = icmp eq i32 %59, 0
  br i1 %60, label %61, label %108

61:                                               ; preds = %51
  %62 = load i32, ptr %14, align 4
  %63 = icmp eq i32 %62, 2
  br i1 %63, label %64, label %108

64:                                               ; preds = %61
  %65 = load ptr, ptr %6, align 8
  %66 = load i32, ptr %11, align 4
  %67 = call i32 @get_ber_length(ptr noundef %65, i32 noundef %66, ptr noundef %15, ptr noundef null)
  store i32 %67, ptr %11, align 4
  %68 = load ptr, ptr %6, align 8
  %69 = load i32, ptr %11, align 4
  %70 = call zeroext i8 @tvb_get_uint8(ptr noundef %68, i32 noundef %69)
  store i8 %70, ptr %16, align 1
  %71 = load i32, ptr %15, align 4
  %72 = icmp eq i32 %71, 1
  br i1 %72, label %73, label %107

73:                                               ; preds = %64
  %74 = load i8, ptr %16, align 1
  %75 = sext i8 %74 to i32
  %76 = icmp sgt i32 %75, 1
  br i1 %76, label %77, label %107

77:                                               ; preds = %73
  %78 = load i8, ptr %16, align 1
  %79 = sext i8 %78 to i32
  %80 = icmp slt i32 %79, 99
  br i1 %80, label %81, label %107

81:                                               ; preds = %77
  %82 = load i32, ptr @exported_pdu_tap, align 4
  %83 = call zeroext i1 @have_tap_listener(i32 noundef %82)
  br i1 %83, label %84, label %101

84:                                               ; preds = %81
  call void @llvm.lifetime.start.p0(i64 8, ptr %17) #7
  %85 = load ptr, ptr %7, align 8
  %86 = call ptr @export_pdu_create_common_tags(ptr noundef %85, ptr noundef @.str.73, i16 noundef zeroext 12)
  store ptr %86, ptr %17, align 8
  %87 = load ptr, ptr %6, align 8
  %88 = call i32 @tvb_captured_length(ptr noundef %87)
  %89 = load ptr, ptr %17, align 8
  %90 = getelementptr inbounds nuw %struct._exp_pdu_data_t, ptr %89, i32 0, i32 2
  store i32 %88, ptr %90, align 8
  %91 = load ptr, ptr %6, align 8
  %92 = call i32 @tvb_reported_length(ptr noundef %91)
  %93 = load ptr, ptr %17, align 8
  %94 = getelementptr inbounds nuw %struct._exp_pdu_data_t, ptr %93, i32 0, i32 3
  store i32 %92, ptr %94, align 4
  %95 = load ptr, ptr %6, align 8
  %96 = load ptr, ptr %17, align 8
  %97 = getelementptr inbounds nuw %struct._exp_pdu_data_t, ptr %96, i32 0, i32 4
  store ptr %95, ptr %97, align 8
  %98 = load i32, ptr @exported_pdu_tap, align 4
  %99 = load ptr, ptr %7, align 8
  %100 = load ptr, ptr %17, align 8
  call void @tap_queue_packet(i32 noundef %98, ptr noundef %99, ptr noundef %100)
  call void @llvm.lifetime.end.p0(i64 8, ptr %17) #7
  br label %101

101:                                              ; preds = %84, %81
  %102 = load ptr, ptr %6, align 8
  %103 = load ptr, ptr %7, align 8
  %104 = load ptr, ptr %8, align 8
  %105 = load ptr, ptr %9, align 8
  %106 = call i32 @dissect_credssp(ptr noundef %102, ptr noundef %103, ptr noundef %104, ptr noundef %105)
  store i1 true, ptr %5, align 1
  store i32 1, ptr %18, align 4
  br label %112

107:                                              ; preds = %77, %73, %64
  br label %108

108:                                              ; preds = %107, %61, %51
  br label %109

109:                                              ; preds = %108, %48, %38
  br label %110

110:                                              ; preds = %109, %33, %30, %23
  br label %111

111:                                              ; preds = %110, %4
  store i1 false, ptr %5, align 1
  store i32 1, ptr %18, align 4
  br label %112

112:                                              ; preds = %111, %101
  call void @llvm.lifetime.end.p0(i64 1, ptr %16) #7
  call void @llvm.lifetime.end.p0(i64 4, ptr %15) #7
  call void @llvm.lifetime.end.p0(i64 4, ptr %14) #7
  call void @llvm.lifetime.end.p0(i64 1, ptr %13) #7
  call void @llvm.lifetime.end.p0(i64 1, ptr %12) #7
  call void @llvm.lifetime.end.p0(i64 4, ptr %11) #7
  call void @llvm.lifetime.end.p0(i64 208, ptr %10) #7
  %113 = load i1, ptr %5, align 1
  ret i1 %113
}